; Function Attrs: inlinehint nounwind uwtable
define internal fastcc i32 @mbedtls_mpi_sub_mod(ptr noundef %0, ptr noundef %1, ptr noundef %2, ptr noundef %3) unnamed_addr #15 {
  %5 = tail call i32 @mbedtls_mpi_sub_mpi(ptr noundef %1, ptr noundef %2, ptr noundef %3) #21
  %.not = icmp eq i32 %5, 0
  br i1 %.not, label %.preheader, label %.critedge

.preheader:                                       ; preds = %4
  %6 = getelementptr inbounds nuw i8, ptr %0, i64 8
  %7 = getelementptr inbounds nuw i8, ptr %1, i64 8
  br label %8

8:                                                ; preds = %.preheader, %13
  %9 = load i16, ptr %7, align 8, !tbaa !63
  %10 = icmp slt i16 %9, 0
  br i1 %10, label %11, label %.critedge

11:                                               ; preds = %8
  %12 = tail call i32 @mbedtls_mpi_cmp_int(ptr noundef nonnull %1, i64 noundef 0) #21
  %.not12 = icmp eq i32 %12, 0
  br i1 %.not12, label %.critedge, label %13

13:                                               ; preds = %11
  %14 = tail call i32 @mbedtls_mpi_add_mpi(ptr noundef nonnull %1, ptr noundef nonnull %1, ptr noundef nonnull %6) #21
  %.not13 = icmp eq i32 %14, 0
  br i1 %.not13, label %8, label %.critedge, !llvm.loop !70

.critedge:                                        ; preds = %11, %8, %13, %4
  %.0 = phi i32 [ %5, %4 ], [ 0, %8 ], [ 0, %11 ], [ %14, %13 ]
  ret i32 %.0
}